; Function Attrs: mustprogress nounwind uwtable
define internal void @_ZNK12_GLOBAL__N_116VariadicArgument17writeDeclarationsERN4llvm11raw_ostreamE(ptr noundef nonnull align 8 dereferenceable(224) %0, ptr noundef nonnull align 8 dereferenceable(48) %1) unnamed_addr #0 align 2 {
  %3 = getelementptr inbounds nuw i8, ptr %1, i64 24
  %4 = load ptr, ptr %3, align 8
  %5 = getelementptr inbounds nuw i8, ptr %1, i64 32
  %6 = load ptr, ptr %5, align 8
  %7 = ptrtoint ptr %4 to i64
  %8 = ptrtoint ptr %6 to i64
  %9 = sub i64 %7, %8
  %10 = icmp ult i64 %9, 11
  br i1 %10, label %11, label %13

11:                                               ; preds = %2
  %12 = tail call noundef nonnull align 8 dereferenceable(48) ptr @_ZN4llvm11raw_ostream5writeEPKcm(ptr noundef nonnull align 8 dereferenceable(48) %1, ptr noundef nonnull @.str.804, i64 noundef 11) #22
  br label %_ZN4llvm11raw_ostreamlsEPKc.exit

13:                                               ; preds = %2
  tail call void @llvm.memcpy.p0.p0.i64(ptr noundef nonnull align 1 dereferenceable(11) %6, ptr noundef nonnull align 1 dereferenceable(11) @.str.804, i64 11, i1 false)
  %14 = load ptr, ptr %5, align 8
  %15 = getelementptr inbounds i8, ptr %14, i64 11
  store ptr %15, ptr %5, align 8
  br label %_ZN4llvm11raw_ostreamlsEPKc.exit

_ZN4llvm11raw_ostreamlsEPKc.exit:                 ; preds = %11, %13
  %.0.i.i = phi ptr [ %12, %11 ], [ %1, %13 ]
  %16 = getelementptr inbounds nuw i8, ptr %0, i64 160
  %17 = tail call noundef ptr @_ZNKSt7__cxx1112basic_stringIcSt11char_traitsIcESaIcEE4dataEv(ptr noundef nonnull align 8 dereferenceable(32) %16) #22
  %18 = tail call noundef i64 @_ZNKSt7__cxx1112basic_stringIcSt11char_traitsIcESaIcEE6lengthEv(ptr noundef nonnull align 8 dereferenceable(32) %16) #22
  %19 = tail call noundef nonnull align 8 dereferenceable(48) ptr @_ZN4llvm11raw_ostream5writeEPKcm(ptr noundef nonnull align 8 dereferenceable(48) %.0.i.i, ptr noundef %17, i64 noundef %18) #22
  %20 = getelementptr inbounds nuw i8, ptr %19, i64 24
  %21 = load ptr, ptr %20, align 8
  %22 = getelementptr inbounds nuw i8, ptr %19, i64 32
  %23 = load ptr, ptr %22, align 8
  %24 = ptrtoint ptr %21 to i64
  %25 = ptrtoint ptr %23 to i64
  %26 = sub i64 %24, %25
  %27 = icmp ult i64 %26, 2
  br i1 %27, label %28, label %30

28:                                               ; preds = %_ZN4llvm11raw_ostreamlsEPKc.exit
  %29 = tail call noundef nonnull align 8 dereferenceable(48) ptr @_ZN4llvm11raw_ostream5writeEPKcm(ptr noundef nonnull align 8 dereferenceable(48) %19, ptr noundef nonnull @.str.5, i64 noundef 2) #22
  br label %_ZN4llvm11raw_ostreamlsEPKc.exit5

30:                                               ; preds = %_ZN4llvm11raw_ostreamlsEPKc.exit
  store i16 2619, ptr %23, align 1
  %31 = load ptr, ptr %22, align 8
  %32 = getelementptr inbounds i8, ptr %31, i64 2
  store ptr %32, ptr %22, align 8
  br label %_ZN4llvm11raw_ostreamlsEPKc.exit5

_ZN4llvm11raw_ostreamlsEPKc.exit5:                ; preds = %28, %30
  %33 = load ptr, ptr %3, align 8
  %34 = load ptr, ptr %5, align 8
  %35 = ptrtoint ptr %33 to i64
  %36 = ptrtoint ptr %34 to i64
  %37 = sub i64 %35, %36
  %38 = icmp ult i64 %37, 2
  br i1 %38, label %39, label %41

39:                                               ; preds = %_ZN4llvm11raw_ostreamlsEPKc.exit5
  %40 = tail call noundef nonnull align 8 dereferenceable(48) ptr @_ZN4llvm11raw_ostream5writeEPKcm(ptr noundef nonnull align 8 dereferenceable(48) %1, ptr noundef nonnull @.str.314, i64 noundef 2) #22
  br label %_ZN4llvm11raw_ostreamlsEPKc.exit8

41:                                               ; preds = %_ZN4llvm11raw_ostreamlsEPKc.exit5
  store i16 8224, ptr %34, align 1
  %42 = load ptr, ptr %5, align 8
  %43 = getelementptr inbounds i8, ptr %42, i64 2
  store ptr %43, ptr %5, align 8
  br label %_ZN4llvm11raw_ostreamlsEPKc.exit8

_ZN4llvm11raw_ostreamlsEPKc.exit8:                ; preds = %39, %41
  %.0.i.i7 = phi ptr [ %40, %39 ], [ %1, %41 ]
  %44 = getelementptr inbounds nuw i8, ptr %0, i64 96
  %45 = tail call noundef ptr @_ZNKSt7__cxx1112basic_stringIcSt11char_traitsIcESaIcEE4dataEv(ptr noundef nonnull align 8 dereferenceable(32) %44) #22
  %46 = tail call noundef i64 @_ZNKSt7__cxx1112basic_stringIcSt11char_traitsIcESaIcEE6lengthEv(ptr noundef nonnull align 8 dereferenceable(32) %44) #22
  %47 = tail call noundef nonnull align 8 dereferenceable(48) ptr @_ZN4llvm11raw_ostream5writeEPKcm(ptr noundef nonnull align 8 dereferenceable(48) %.0.i.i7, ptr noundef %45, i64 noundef %46) #22
  %48 = getelementptr inbounds nuw i8, ptr %47, i64 24
  %49 = load ptr, ptr %48, align 8
  %50 = getelementptr inbounds nuw i8, ptr %47, i64 32
  %51 = load ptr, ptr %50, align 8
  %52 = ptrtoint ptr %49 to i64
  %53 = ptrtoint ptr %51 to i64
  %54 = sub i64 %52, %53
  %55 = icmp ult i64 %54, 2
  br i1 %55, label %56, label %58

56:                                               ; preds = %_ZN4llvm11raw_ostreamlsEPKc.exit8
  %57 = tail call noundef nonnull align 8 dereferenceable(48) ptr @_ZN4llvm11raw_ostream5writeEPKcm(ptr noundef nonnull align 8 dereferenceable(48) %47, ptr noundef nonnull @.str.817, i64 noundef 2) #22
  br label %_ZN4llvm11raw_ostreamlsEPKc.exit11

58:                                               ; preds = %_ZN4llvm11raw_ostreamlsEPKc.exit8
  store i16 10784, ptr %51, align 1
  %59 = load ptr, ptr %50, align 8
  %60 = getelementptr inbounds i8, ptr %59, i64 2
  store ptr %60, ptr %50, align 8
  br label %_ZN4llvm11raw_ostreamlsEPKc.exit11

_ZN4llvm11raw_ostreamlsEPKc.exit11:               ; preds = %56, %58
  %.0.i.i10 = phi ptr [ %57, %56 ], [ %47, %58 ]
  %61 = getelementptr inbounds nuw i8, ptr %0, i64 128
  %62 = tail call noundef ptr @_ZNKSt7__cxx1112basic_stringIcSt11char_traitsIcESaIcEE4dataEv(ptr noundef nonnull align 8 dereferenceable(32) %61) #22
  %63 = tail call noundef i64 @_ZNKSt7__cxx1112basic_stringIcSt11char_traitsIcESaIcEE6lengthEv(ptr noundef nonnull align 8 dereferenceable(32) %61) #22
  %64 = tail call noundef nonnull align 8 dereferenceable(48) ptr @_ZN4llvm11raw_ostream5writeEPKcm(ptr noundef nonnull align 8 dereferenceable(48) %.0.i.i10, ptr noundef %62, i64 noundef %63) #22
  %65 = getelementptr inbounds nuw i8, ptr %64, i64 24
  %66 = load ptr, ptr %65, align 8
  %67 = getelementptr inbounds nuw i8, ptr %64, i64 32
  %68 = load ptr, ptr %67, align 8
  %69 = icmp eq ptr %66, %68
  br i1 %69, label %70, label %72

70:                                               ; preds = %_ZN4llvm11raw_ostreamlsEPKc.exit11
  %71 = tail call noundef nonnull align 8 dereferenceable(48) ptr @_ZN4llvm11raw_ostream5writeEPKcm(ptr noundef nonnull align 8 dereferenceable(48) %64, ptr noundef nonnull @.str.246, i64 noundef 1) #22
  br label %_ZN4llvm11raw_ostreamlsEPKc.exit14

72:                                               ; preds = %_ZN4llvm11raw_ostreamlsEPKc.exit11
  store i8 59, ptr %68, align 1
  %73 = load ptr, ptr %67, align 8
  %74 = getelementptr inbounds i8, ptr %73, i64 1
  store ptr %74, ptr %67, align 8
  br label %_ZN4llvm11raw_ostreamlsEPKc.exit14

_ZN4llvm11raw_ostreamlsEPKc.exit14:               ; preds = %70, %72
  ret void
}